target datalayout = "e-m:e-p270:32:32-p271:32:32-p272:64:64-i64:64-i128:128-f80:128-n8:16:32:64-S128"
target triple = "x86_64-pc-linux-gnu"

%struct.SDL_HIDAPI_RumbleContext = type { %struct.SDL_AtomicInt, %struct.SDL_AtomicInt, ptr, ptr, ptr, ptr }
%struct.SDL_AtomicInt = type { i32 }

@rumble_context = internal global %struct.SDL_HIDAPI_RumbleContext zeroinitializer, align 8

; Function Attrs: nounwind uwtable
define hidden void @SDL_HIDAPI_QuitRumble() #0 {
  %1 = alloca ptr, align 8
  call void @llvm.lifetime.start.p0(i64 8, ptr %1) #5
  store ptr @rumble_context, ptr %1, align 8
  %2 = load ptr, ptr %1, align 8
  %3 = getelementptr inbounds nuw %struct.SDL_HIDAPI_RumbleContext, ptr %2, i32 0, i32 1
  %4 = call i32 @SDL_GetAtomicInt_REAL(ptr noundef %3)
  %5 = icmp ne i32 %4, 0
  br i1 %5, label %6, label %8

6:                                                ; preds = %0
  %7 = load ptr, ptr %1, align 8
  call void @SDL_HIDAPI_StopRumbleThread(ptr noundef %7)
  br label %8

8:                                                ; preds = %6, %0
  call void @llvm.lifetime.end.p0(i64 8, ptr %1) #5
  ret void
}