; Function Attrs: nounwind uwtable
define hidden void @SDL_HIDAPI_QuitRumble() local_unnamed_addr #0 {
  %1 = tail call i32 @SDL_GetAtomicInt_REAL(ptr noundef nonnull getelementptr inbounds nuw (i8, ptr @rumble_context, i64 4)) #6
  %.not = icmp eq i32 %1, 0
  br i1 %.not, label %3, label %2

2:                                                ; preds = %0
  tail call fastcc void @SDL_HIDAPI_StopRumbleThread()
  br label %3

3:                                                ; preds = %2, %0
  ret void
}